target datalayout = "e-m:e-p270:32:32-p271:32:32-p272:64:64-i64:64-i128:128-f80:128-n8:16:32:64-S128"
target triple = "x86_64-pc-linux-gnu"

%struct.H5O_link_t = type { i32, i8, i64, i32, ptr, %union.anon }
%union.anon = type { %struct.H5O_link_ud_t }
%struct.H5O_link_ud_t = type { ptr, i64 }

@H5G_init_g = external global i8, align 1
@H5_libterm_g = external global i8, align 1
@.str = private unnamed_addr constant [101 x i8] c"generated/home/dtcxzyw/WorkSpace/Projects/compilers/llvm-opt-benchmark/bench/hdf5/hdf5/src/H5Glink.c\00", align 1
@H5E_SYM_g = external global i64, align 8
@__func__.H5G__link_name_replace = private unnamed_addr constant [23 x i8] c"H5G__link_name_replace\00", align 1
@H5E_CANTDELETE_g = external global i64, align 8
@.str.18 = private unnamed_addr constant [23 x i8] c"unable to replace name\00", align 1

; Function Attrs: nounwind uwtable
define i32 @H5G__link_name_replace(ptr noundef %0, ptr noundef %1, ptr noundef %2) #0 {
  %4 = alloca ptr, align 8
  %5 = alloca ptr, align 8
  %6 = alloca ptr, align 8
  %7 = alloca ptr, align 8
  %8 = alloca i32, align 4
  %9 = alloca i8, align 1
  store ptr %0, ptr %4, align 8, !tbaa !37
  store ptr %1, ptr %5, align 8, !tbaa !72
  store ptr %2, ptr %6, align 8, !tbaa !8
  call void @llvm.lifetime.start.p0(i64 8, ptr %7) #6
  store ptr null, ptr %7, align 8, !tbaa !72
  call void @llvm.lifetime.start.p0(i64 4, ptr %8) #6
  store i32 0, ptr %8, align 4, !tbaa !11
  call void @llvm.lifetime.start.p0(i64 1, ptr %9) #6
  store i8 0, ptr %9, align 1, !tbaa !13
  %10 = load i8, ptr @H5G_init_g, align 1, !tbaa !13, !range !15, !noundef !16
  %11 = trunc i8 %10 to i1
  br i1 %11, label %16, label %12

12:                                               ; preds = %3
  %13 = load i8, ptr @H5_libterm_g, align 1, !tbaa !13, !range !15, !noundef !16
  %14 = trunc i8 %13 to i1
  %15 = xor i1 %14, true
  br label %16

16:                                               ; preds = %12, %3
  %17 = phi i1 [ true, %3 ], [ %15, %12 ]
  %18 = xor i1 %17, true
  %19 = xor i1 %18, true
  %20 = zext i1 %19 to i32
  %21 = sext i32 %20 to i64
  %22 = call i64 @llvm.expect.i64(i64 %21, i64 1)
  %23 = icmp ne i64 %22, 0
  br i1 %23, label %24, label %66

24:                                               ; preds = %16
  %25 = load ptr, ptr %5, align 8, !tbaa !72
  %26 = icmp ne ptr %25, null
  br i1 %26, label %27, label %58

27:                                               ; preds = %24
  %28 = load ptr, ptr %5, align 8, !tbaa !72
  %29 = load ptr, ptr %6, align 8, !tbaa !8
  %30 = getelementptr inbounds nuw %struct.H5O_link_t, ptr %29, i32 0, i32 4
  %31 = load ptr, ptr %30, align 8, !tbaa !36
  %32 = call ptr @H5G_build_fullpath_refstr_str(ptr noundef %28, ptr noundef %31)
  store ptr %32, ptr %7, align 8, !tbaa !72
  %33 = load ptr, ptr %6, align 8, !tbaa !8
  %34 = load ptr, ptr %4, align 8, !tbaa !37
  %35 = load ptr, ptr %7, align 8, !tbaa !72
  %36 = call i32 @H5G_name_replace(ptr noundef %33, i32 noundef 1, ptr noundef %34, ptr noundef %35, ptr noundef null, ptr noundef null)
  %37 = icmp slt i32 %36, 0
  br i1 %37, label %38, label %57

38:                                               ; preds = %27
  br label %39

39:                                               ; preds = %38
  br label %40

40:                                               ; preds = %39
  br label %41

41:                                               ; preds = %40
  %42 = load i64, ptr @H5E_SYM_g, align 8, !tbaa !17
  %43 = load i64, ptr @H5E_CANTDELETE_g, align 8, !tbaa !17
  %44 = call i32 (ptr, ptr, i32, i64, i64, ptr, ...) @H5E_printf_stack(ptr noundef @.str, ptr noundef @__func__.H5G__link_name_replace, i32 noundef 597, i64 noundef %42, i64 noundef %43, ptr noundef @.str.18)
  br label %45

45:                                               ; preds = %41
  br label %46

46:                                               ; preds = %45
  store i8 1, ptr %9, align 1, !tbaa !13
  %47 = load i8, ptr %9, align 1, !tbaa !13, !range !15, !noundef !16
  %48 = trunc i8 %47 to i1
  %49 = zext i1 %48 to i8
  store i8 %49, ptr %9, align 1, !tbaa !13
  br label %50

50:                                               ; preds = %46
  br label %51

51:                                               ; preds = %50
  br label %52

52:                                               ; preds = %51
  store i32 -1, ptr %8, align 4, !tbaa !11
  br label %59

53:                                               ; No predecessors!
  br label %54

54:                                               ; preds = %53
  br label %55

55:                                               ; preds = %54
  br label %56

56:                                               ; preds = %55
  br label %57

57:                                               ; preds = %56, %27
  br label %58

58:                                               ; preds = %57, %24
  br label %59

59:                                               ; preds = %58, %52
  %60 = load ptr, ptr %7, align 8, !tbaa !72
  %61 = icmp ne ptr %60, null
  br i1 %61, label %62, label %65

62:                                               ; preds = %59
  %63 = load ptr, ptr %7, align 8, !tbaa !72
  %64 = call i32 @H5RS_decr(ptr noundef %63)
  br label %65

65:                                               ; preds = %62, %59
  br label %66

66:                                               ; preds = %65, %16
  %67 = load i32, ptr %8, align 4, !tbaa !11
  call void @llvm.lifetime.end.p0(i64 1, ptr %9) #6
  call void @llvm.lifetime.end.p0(i64 4, ptr %8) #6
  call void @llvm.lifetime.end.p0(i64 8, ptr %7) #6
  ret i32 %67
}