; Function Attrs: nounwind uwtable
define range(i32 -1, 1) i32 @H5G__link_name_replace(ptr noundef %0, ptr noundef %1, ptr noundef %2) local_unnamed_addr #0 {
  %4 = load i8, ptr @H5G_init_g, align 1, !tbaa !3, !range !7, !noundef !8
  %5 = trunc nuw i8 %4 to i1
  %6 = load i8, ptr @H5_libterm_g, align 1, !range !7
  %7 = trunc nuw i8 %6 to i1
  %not. = xor i1 %5, true
  %.not15 = select i1 %not., i1 %7, i1 false
  %.not = icmp eq ptr %1, null
  %or.cond = or i1 %.not, %.not15
  br i1 %or.cond, label %.thread, label %8, !prof !57

8:                                                ; preds = %3
  %9 = getelementptr inbounds nuw i8, ptr %2, i64 24
  %10 = load ptr, ptr %9, align 8, !tbaa !32
  %11 = tail call ptr @H5G_build_fullpath_refstr_str(ptr noundef nonnull %1, ptr noundef %10) #9
  %12 = tail call i32 @H5G_name_replace(ptr noundef %2, i32 noundef 1, ptr noundef %0, ptr noundef %11, ptr noundef null, ptr noundef null) #9
  %13 = icmp slt i32 %12, 0
  br i1 %13, label %14, label %18

14:                                               ; preds = %8
  %15 = load i64, ptr @H5E_SYM_g, align 8, !tbaa !10
  %16 = load i64, ptr @H5E_CANTDELETE_g, align 8, !tbaa !10
  %17 = tail call i32 (ptr, ptr, i32, i64, i64, ptr, ...) @H5E_printf_stack(ptr noundef nonnull @.str, ptr noundef nonnull @__func__.H5G__link_name_replace, i32 noundef 597, i64 noundef %15, i64 noundef %16, ptr noundef nonnull @.str.18) #9
  br label %18

18:                                               ; preds = %8, %14
  %.1 = phi i32 [ -1, %14 ], [ 0, %8 ]
  %.not11 = icmp eq ptr %11, null
  br i1 %.not11, label %.thread, label %19

19:                                               ; preds = %18
  %20 = tail call i32 @H5RS_decr(ptr noundef nonnull %11) #9
  br label %.thread

.thread:                                          ; preds = %18, %19, %3
  %.0 = phi i32 [ %.1, %19 ], [ %.1, %18 ], [ 0, %3 ]
  ret i32 %.0
}